; Function Attrs: nounwind uwtable
define internal void @lv_obj_destructor(ptr readnone captures(none) %0, ptr noundef %1) #0 {
  tail call void @lv_event_mark_deleted(ptr noundef %1) #8
  tail call void @lv_obj_enable_style_refresh(i1 noundef zeroext false) #8
  tail call void @lv_obj_remove_style_all(ptr noundef %1) #8
  tail call void @lv_obj_enable_style_refresh(i1 noundef zeroext true) #8
  %3 = tail call zeroext i1 @lv_anim_delete(ptr noundef %1, ptr noundef null) #8
  %.not.i = icmp eq ptr %1, null
  br i1 %.not.i, label %.preheader.i, label %4

.preheader.i:                                     ; preds = %2, %.preheader.i
  br label %.preheader.i

4:                                                ; preds = %2
  %5 = getelementptr inbounds nuw i8, ptr %1, i64 16
  %6 = load ptr, ptr %5, align 8, !tbaa !20
  %.not6.i = icmp eq ptr %6, null
  br i1 %.not6.i, label %.thread, label %lv_obj_get_group.exit

lv_obj_get_group.exit:                            ; preds = %4
  %7 = getelementptr inbounds nuw i8, ptr %6, i64 8
  %8 = load ptr, ptr %7, align 8, !tbaa !21
  %.not = icmp eq ptr %8, null
  br i1 %.not, label %.thread20, label %9

9:                                                ; preds = %lv_obj_get_group.exit
  tail call void @lv_group_remove_obj(ptr noundef nonnull %1) #8
  %.pr.pre = load ptr, ptr %5, align 8, !tbaa !20
  %.not14 = icmp eq ptr %.pr.pre, null
  br i1 %.not14, label %.thread, label %.thread20

.thread20:                                        ; preds = %lv_obj_get_group.exit, %9
  %.pr23 = phi ptr [ %.pr.pre, %9 ], [ %6, %lv_obj_get_group.exit ]
  %10 = load ptr, ptr %.pr23, align 8, !tbaa !30
  %.not15 = icmp eq ptr %10, null
  br i1 %.not15, label %13, label %11

11:                                               ; preds = %.thread20
  tail call void @lv_free(ptr noundef nonnull %10) #8
  %12 = load ptr, ptr %5, align 8, !tbaa !20
  store ptr null, ptr %12, align 8, !tbaa !30
  br label %13

13:                                               ; preds = %11, %.thread20
  %14 = phi ptr [ %12, %11 ], [ %.pr23, %.thread20 ]
  %15 = getelementptr inbounds nuw i8, ptr %14, i64 16
  tail call void @lv_event_remove_all(ptr noundef nonnull %15) #8
  %16 = load ptr, ptr %5, align 8, !tbaa !20
  tail call void @lv_free(ptr noundef %16) #8
  store ptr null, ptr %5, align 8, !tbaa !20
  br label %.thread

.thread:                                          ; preds = %4, %13, %9
  ret void
}